target datalayout = "e-m:e-p270:32:32-p271:32:32-p272:64:64-i64:64-i128:128-f80:128-n8:16:32:64-S128"
target triple = "x86_64-pc-linux-gnu"

@.str = private unnamed_addr constant [3 x i8] c"ew\00", align 1
@.str.1 = private unnamed_addr constant [4 x i8] c"any\00", align 1
@.str.2 = private unnamed_addr constant [5 x i8] c"ther\00", align 1
@.str.3 = private unnamed_addr constant [3 x i8] c"ne\00", align 1
@.str.4 = private unnamed_addr constant [3 x i8] c"wo\00", align 1
@.str.5 = private unnamed_addr constant [4 x i8] c"ero\00", align 1
@.str.6 = private unnamed_addr constant [2 x i8] c"0\00", align 1
@.str.7 = private unnamed_addr constant [2 x i8] c"1\00", align 1

; Function Attrs: mustprogress nounwind uwtable
define noundef i32 @_ZN6icu_7714StandardPlural25indexOrNegativeFromStringEPKc(ptr noundef %0) #0 align 2 {
  %2 = alloca i32, align 4
  %3 = alloca ptr, align 8
  store ptr %0, ptr %3, align 8, !tbaa !7
  %4 = load ptr, ptr %3, align 8, !tbaa !7
  %5 = getelementptr inbounds nuw i8, ptr %4, i32 1
  store ptr %5, ptr %3, align 8, !tbaa !7
  %6 = load i8, ptr %4, align 1, !tbaa !10
  %7 = sext i8 %6 to i32
  switch i32 %7, label %70 [
    i32 102, label %8
    i32 109, label %14
    i32 111, label %20
    i32 116, label %32
    i32 122, label %38
    i32 61, label %44
    i32 48, label %56
    i32 49, label %63
  ]

8:                                                ; preds = %1
  %9 = load ptr, ptr %3, align 8, !tbaa !7
  %10 = call i32 @strcmp(ptr noundef %9, ptr noundef @.str) #7
  %11 = icmp eq i32 %10, 0
  br i1 %11, label %12, label %13

12:                                               ; preds = %8
  store i32 3, ptr %2, align 4
  br label %72

13:                                               ; preds = %8
  br label %71

14:                                               ; preds = %1
  %15 = load ptr, ptr %3, align 8, !tbaa !7
  %16 = call i32 @strcmp(ptr noundef %15, ptr noundef @.str.1) #7
  %17 = icmp eq i32 %16, 0
  br i1 %17, label %18, label %19

18:                                               ; preds = %14
  store i32 4, ptr %2, align 4
  br label %72

19:                                               ; preds = %14
  br label %71

20:                                               ; preds = %1
  %21 = load ptr, ptr %3, align 8, !tbaa !7
  %22 = call i32 @strcmp(ptr noundef %21, ptr noundef @.str.2) #7
  %23 = icmp eq i32 %22, 0
  br i1 %23, label %24, label %25

24:                                               ; preds = %20
  store i32 5, ptr %2, align 4
  br label %72

25:                                               ; preds = %20
  %26 = load ptr, ptr %3, align 8, !tbaa !7
  %27 = call i32 @strcmp(ptr noundef %26, ptr noundef @.str.3) #7
  %28 = icmp eq i32 %27, 0
  br i1 %28, label %29, label %30

29:                                               ; preds = %25
  store i32 1, ptr %2, align 4
  br label %72

30:                                               ; preds = %25
  br label %31

31:                                               ; preds = %30
  br label %71

32:                                               ; preds = %1
  %33 = load ptr, ptr %3, align 8, !tbaa !7
  %34 = call i32 @strcmp(ptr noundef %33, ptr noundef @.str.4) #7
  %35 = icmp eq i32 %34, 0
  br i1 %35, label %36, label %37

36:                                               ; preds = %32
  store i32 2, ptr %2, align 4
  br label %72

37:                                               ; preds = %32
  br label %71

38:                                               ; preds = %1
  %39 = load ptr, ptr %3, align 8, !tbaa !7
  %40 = call i32 @strcmp(ptr noundef %39, ptr noundef @.str.5) #7
  %41 = icmp eq i32 %40, 0
  br i1 %41, label %42, label %43

42:                                               ; preds = %38
  store i32 0, ptr %2, align 4
  br label %72

43:                                               ; preds = %38
  br label %71

44:                                               ; preds = %1
  %45 = load ptr, ptr %3, align 8, !tbaa !7
  %46 = call i32 @strcmp(ptr noundef %45, ptr noundef @.str.6) #7
  %47 = icmp eq i32 %46, 0
  br i1 %47, label %48, label %49

48:                                               ; preds = %44
  store i32 6, ptr %2, align 4
  br label %72

49:                                               ; preds = %44
  %50 = load ptr, ptr %3, align 8, !tbaa !7
  %51 = call i32 @strcmp(ptr noundef %50, ptr noundef @.str.7) #7
  %52 = icmp eq i32 %51, 0
  br i1 %52, label %53, label %54

53:                                               ; preds = %49
  store i32 7, ptr %2, align 4
  br label %72

54:                                               ; preds = %49
  br label %55

55:                                               ; preds = %54
  br label %71

56:                                               ; preds = %1
  %57 = load ptr, ptr %3, align 8, !tbaa !7
  %58 = load i8, ptr %57, align 1, !tbaa !10
  %59 = sext i8 %58 to i32
  %60 = icmp eq i32 %59, 0
  br i1 %60, label %61, label %62

61:                                               ; preds = %56
  store i32 6, ptr %2, align 4
  br label %72

62:                                               ; preds = %56
  br label %71

63:                                               ; preds = %1
  %64 = load ptr, ptr %3, align 8, !tbaa !7
  %65 = load i8, ptr %64, align 1, !tbaa !10
  %66 = sext i8 %65 to i32
  %67 = icmp eq i32 %66, 0
  br i1 %67, label %68, label %69

68:                                               ; preds = %63
  store i32 7, ptr %2, align 4
  br label %72

69:                                               ; preds = %63
  br label %71

70:                                               ; preds = %1
  br label %71

71:                                               ; preds = %70, %69, %62, %55, %43, %37, %31, %19, %13
  store i32 -1, ptr %2, align 4
  br label %72

72:                                               ; preds = %71, %68, %61, %53, %48, %42, %36, %29, %24, %18, %12
  %73 = load i32, ptr %2, align 4
  ret i32 %73
}