; Function Attrs: mustprogress nofree nounwind willreturn memory(argmem: read) uwtable
define noundef range(i32 -1, 8) i32 @_ZN6icu_7714StandardPlural25indexOrNegativeFromStringEPKc(ptr noundef readonly captures(none) %0) local_unnamed_addr #1 align 2 {
  %2 = getelementptr inbounds nuw i8, ptr %0, i64 1
  %3 = load i8, ptr %0, align 1, !tbaa !8
  switch i8 %3, label %.tail.thread [
    i8 102, label %sub_0
    i8 109, label %10
    i8 111, label %13
    i8 116, label %sub_017
    i8 122, label %28
    i8 61, label %sub_022
    i8 48, label %38
    i8 49, label %41
  ]

sub_0:                                            ; preds = %1
  %4 = load i8, ptr %2, align 1
  %.not34 = icmp eq i8 %4, 101
  br i1 %.not34, label %sub_1, label %.tail.thread

sub_1:                                            ; preds = %sub_0
  %5 = getelementptr inbounds nuw i8, ptr %0, i64 2
  %6 = load i8, ptr %5, align 1
  %.not35 = icmp eq i8 %6, 119
  br i1 %.not35, label %.tail, label %.tail.thread

.tail:                                            ; preds = %sub_1
  %7 = getelementptr inbounds nuw i8, ptr %0, i64 3
  %8 = load i8, ptr %7, align 1
  %9 = icmp eq i8 %8, 0
  br i1 %9, label %44, label %.tail.thread

10:                                               ; preds = %1
  %11 = tail call i32 @strcmp(ptr noundef nonnull dereferenceable(1) %2, ptr noundef nonnull dereferenceable(4) @.str.1) #6
  %12 = icmp eq i32 %11, 0
  br i1 %12, label %44, label %.tail.thread

13:                                               ; preds = %1
  %14 = tail call i32 @strcmp(ptr noundef nonnull dereferenceable(1) %2, ptr noundef nonnull dereferenceable(5) @.str.2) #6
  %15 = icmp eq i32 %14, 0
  br i1 %15, label %44, label %sub_012

sub_012:                                          ; preds = %13
  %16 = load i8, ptr %2, align 1
  %.not32 = icmp eq i8 %16, 110
  br i1 %.not32, label %sub_113, label %.tail.thread

sub_113:                                          ; preds = %sub_012
  %17 = getelementptr inbounds nuw i8, ptr %0, i64 2
  %18 = load i8, ptr %17, align 1
  %.not33 = icmp eq i8 %18, 101
  br i1 %.not33, label %.tail11, label %.tail.thread

.tail11:                                          ; preds = %sub_113
  %19 = getelementptr inbounds nuw i8, ptr %0, i64 3
  %20 = load i8, ptr %19, align 1
  %21 = icmp eq i8 %20, 0
  br i1 %21, label %44, label %.tail.thread

sub_017:                                          ; preds = %1
  %22 = load i8, ptr %2, align 1
  %.not30 = icmp eq i8 %22, 119
  br i1 %.not30, label %sub_118, label %.tail.thread

sub_118:                                          ; preds = %sub_017
  %23 = getelementptr inbounds nuw i8, ptr %0, i64 2
  %24 = load i8, ptr %23, align 1
  %.not31 = icmp eq i8 %24, 111
  br i1 %.not31, label %.tail16, label %.tail.thread

.tail16:                                          ; preds = %sub_118
  %25 = getelementptr inbounds nuw i8, ptr %0, i64 3
  %26 = load i8, ptr %25, align 1
  %27 = icmp eq i8 %26, 0
  br i1 %27, label %44, label %.tail.thread

28:                                               ; preds = %1
  %29 = tail call i32 @strcmp(ptr noundef nonnull dereferenceable(1) %2, ptr noundef nonnull dereferenceable(4) @.str.5) #6
  %30 = icmp eq i32 %29, 0
  br i1 %30, label %44, label %.tail.thread

sub_022:                                          ; preds = %1
  %31 = load i8, ptr %2, align 1
  switch i8 %31, label %.tail.thread [
    i8 48, label %.tail21
    i8 49, label %.tail25
  ]

.tail21:                                          ; preds = %sub_022
  %32 = getelementptr inbounds nuw i8, ptr %0, i64 2
  %33 = load i8, ptr %32, align 1
  %34 = icmp eq i8 %33, 0
  br i1 %34, label %44, label %.tail.thread

.tail25:                                          ; preds = %sub_022
  %35 = getelementptr inbounds nuw i8, ptr %0, i64 2
  %36 = load i8, ptr %35, align 1
  %37 = icmp eq i8 %36, 0
  br i1 %37, label %44, label %.tail.thread

38:                                               ; preds = %1
  %39 = load i8, ptr %2, align 1, !tbaa !8
  %40 = icmp eq i8 %39, 0
  br i1 %40, label %44, label %.tail.thread

41:                                               ; preds = %1
  %42 = load i8, ptr %2, align 1, !tbaa !8
  %43 = icmp eq i8 %42, 0
  br i1 %43, label %44, label %.tail.thread

.tail.thread:                                     ; preds = %sub_022, %.tail21, %sub_118, %sub_017, %sub_113, %sub_012, %sub_1, %sub_0, %1, %41, %38, %.tail25, %28, %.tail16, %.tail11, %10, %.tail
  br label %44

44:                                               ; preds = %41, %38, %.tail25, %.tail21, %28, %.tail16, %.tail11, %13, %10, %.tail, %.tail.thread
  %.0 = phi i32 [ -1, %.tail.thread ], [ 3, %.tail ], [ 4, %10 ], [ 5, %13 ], [ 1, %.tail11 ], [ 2, %.tail16 ], [ 0, %28 ], [ 6, %.tail21 ], [ 7, %.tail25 ], [ 6, %38 ], [ 7, %41 ]
  ret i32 %.0
}